target datalayout = "e-m:e-p270:32:32-p271:32:32-p272:64:64-i64:64-i128:128-f80:128-n8:16:32:64-S128"
target triple = "x86_64-unknown-linux-gnu"

%"class.QuantLib::AmericanPayoffAtHit" = type { double, double, double, double, double, double, double, double, double, double, double, double, double, double, double, double, double, double, double, double, double, i8, double, double, double }

; Function Attrs: mustprogress nounwind uwtable
define noundef double @_ZNK8QuantLib19AmericanPayoffAtHit5deltaEv(ptr noundef nonnull align 8 dereferenceable(200) %this) #5 align 2 {
entry:
  %this.addr = alloca ptr, align 8
  %tempDelta = alloca double, align 8
  %DalphaDs = alloca double, align 8
  %DbetaDs = alloca double, align 8
  %DforwardDs = alloca double, align 8
  %DXDs = alloca double, align 8
  store ptr %this, ptr %this.addr, align 8, !tbaa !3
  %this1 = load ptr, ptr %this.addr, align 8
  call void @llvm.lifetime.start.p0(i64 8, ptr %tempDelta) #15
  %spot_ = getelementptr inbounds nuw %"class.QuantLib::AmericanPayoffAtHit", ptr %this1, i32 0, i32 0
  %0 = load double, ptr %spot_, align 8, !tbaa !11
  %fneg = fneg double %0
  %stdDev_ = getelementptr inbounds nuw %"class.QuantLib::AmericanPayoffAtHit", ptr %this1, i32 0, i32 4
  %1 = load double, ptr %stdDev_, align 8, !tbaa !19
  %mul = fmul double %fneg, %1
  store double %mul, ptr %tempDelta, align 8, !tbaa !9
  call void @llvm.lifetime.start.p0(i64 8, ptr %DalphaDs) #15
  %DalphaDd1_ = getelementptr inbounds nuw %"class.QuantLib::AmericanPayoffAtHit", ptr %this1, i32 0, i32 19
  %2 = load double, ptr %DalphaDd1_, align 8, !tbaa !31
  %3 = load double, ptr %tempDelta, align 8, !tbaa !9
  %div = fdiv double %2, %3
  store double %div, ptr %DalphaDs, align 8, !tbaa !9
  call void @llvm.lifetime.start.p0(i64 8, ptr %DbetaDs) #15
  %DbetaDd2_ = getelementptr inbounds nuw %"class.QuantLib::AmericanPayoffAtHit", ptr %this1, i32 0, i32 20
  %4 = load double, ptr %DbetaDd2_, align 8, !tbaa !33
  %5 = load double, ptr %tempDelta, align 8, !tbaa !9
  %div2 = fdiv double %4, %5
  store double %div2, ptr %DbetaDs, align 8, !tbaa !9
  call void @llvm.lifetime.start.p0(i64 8, ptr %DforwardDs) #15
  call void @llvm.lifetime.start.p0(i64 8, ptr %DXDs) #15
  %inTheMoney_ = getelementptr inbounds nuw %"class.QuantLib::AmericanPayoffAtHit", ptr %this1, i32 0, i32 21
  %6 = load i8, ptr %inTheMoney_, align 8, !tbaa !36, !range !37, !noundef !38
  %loadedv = trunc i8 %6 to i1
  br i1 %loadedv, label %if.then, label %if.else

if.then:                                          ; preds = %entry
  store double 0.000000e+00, ptr %DforwardDs, align 8, !tbaa !9
  store double 0.000000e+00, ptr %DXDs, align 8, !tbaa !9
  br label %if.end

if.else:                                          ; preds = %entry
  %muPlusLambda_ = getelementptr inbounds nuw %"class.QuantLib::AmericanPayoffAtHit", ptr %this1, i32 0, i32 10
  %7 = load double, ptr %muPlusLambda_, align 8, !tbaa !34
  %fneg3 = fneg double %7
  %forward_ = getelementptr inbounds nuw %"class.QuantLib::AmericanPayoffAtHit", ptr %this1, i32 0, i32 22
  %8 = load double, ptr %forward_, align 8, !tbaa !39
  %mul4 = fmul double %fneg3, %8
  %spot_5 = getelementptr inbounds nuw %"class.QuantLib::AmericanPayoffAtHit", ptr %this1, i32 0, i32 0
  %9 = load double, ptr %spot_5, align 8, !tbaa !11
  %div6 = fdiv double %mul4, %9
  store double %div6, ptr %DforwardDs, align 8, !tbaa !9
  %muMinusLambda_ = getelementptr inbounds nuw %"class.QuantLib::AmericanPayoffAtHit", ptr %this1, i32 0, i32 11
  %10 = load double, ptr %muMinusLambda_, align 8, !tbaa !35
  %fneg7 = fneg double %10
  %X_ = getelementptr inbounds nuw %"class.QuantLib::AmericanPayoffAtHit", ptr %this1, i32 0, i32 23
  %11 = load double, ptr %X_, align 8, !tbaa !40
  %mul8 = fmul double %fneg7, %11
  %spot_9 = getelementptr inbounds nuw %"class.QuantLib::AmericanPayoffAtHit", ptr %this1, i32 0, i32 0
  %12 = load double, ptr %spot_9, align 8, !tbaa !11
  %div10 = fdiv double %mul8, %12
  store double %div10, ptr %DXDs, align 8, !tbaa !9
  br label %if.end

if.end:                                           ; preds = %if.else, %if.then
  %K_ = getelementptr inbounds nuw %"class.QuantLib::AmericanPayoffAtHit", ptr %this1, i32 0, i32 6
  %13 = load double, ptr %K_, align 8, !tbaa !42
  %14 = load double, ptr %DalphaDs, align 8, !tbaa !9
  %forward_11 = getelementptr inbounds nuw %"class.QuantLib::AmericanPayoffAtHit", ptr %this1, i32 0, i32 22
  %15 = load double, ptr %forward_11, align 8, !tbaa !39
  %alpha_ = getelementptr inbounds nuw %"class.QuantLib::AmericanPayoffAtHit", ptr %this1, i32 0, i32 17
  %16 = load double, ptr %alpha_, align 8, !tbaa !30
  %17 = load double, ptr %DforwardDs, align 8, !tbaa !9
  %mul13 = fmul double %16, %17
  %18 = call double @llvm.fmuladd.f64(double %14, double %15, double %mul13)
  %19 = load double, ptr %DbetaDs, align 8, !tbaa !9
  %X_14 = getelementptr inbounds nuw %"class.QuantLib::AmericanPayoffAtHit", ptr %this1, i32 0, i32 23
  %20 = load double, ptr %X_14, align 8, !tbaa !40
  %21 = call double @llvm.fmuladd.f64(double %19, double %20, double %18)
  %beta_ = getelementptr inbounds nuw %"class.QuantLib::AmericanPayoffAtHit", ptr %this1, i32 0, i32 18
  %22 = load double, ptr %beta_, align 8, !tbaa !32
  %23 = load double, ptr %DXDs, align 8, !tbaa !9
  %24 = call double @llvm.fmuladd.f64(double %22, double %23, double %21)
  %mul17 = fmul double %13, %24
  call void @llvm.lifetime.end.p0(i64 8, ptr %DXDs) #15
  call void @llvm.lifetime.end.p0(i64 8, ptr %DforwardDs) #15
  call void @llvm.lifetime.end.p0(i64 8, ptr %DbetaDs) #15
  call void @llvm.lifetime.end.p0(i64 8, ptr %DalphaDs) #15
  call void @llvm.lifetime.end.p0(i64 8, ptr %tempDelta) #15
  ret double %mul17
}