; Function Attrs: mustprogress nofree norecurse nosync nounwind willreturn memory(argmem: read) uwtable
define noundef double @_ZNK8QuantLib19AmericanPayoffAtHit5deltaEv(ptr nocapture noundef nonnull readonly align 8 dereferenceable(200) %this) local_unnamed_addr #11 align 2 {
entry:
  %0 = load double, ptr %this, align 8, !tbaa !18
  %stdDev_ = getelementptr inbounds nuw i8, ptr %this, i64 32
  %1 = load double, ptr %stdDev_, align 8, !tbaa !27
  %DalphaDd1_ = getelementptr inbounds nuw i8, ptr %this, i64 152
  %2 = load double, ptr %DalphaDd1_, align 8, !tbaa !73
  %DbetaDd2_ = getelementptr inbounds nuw i8, ptr %this, i64 160
  %3 = load double, ptr %DbetaDd2_, align 8, !tbaa !74
  %inTheMoney_ = getelementptr inbounds nuw i8, ptr %this, i64 168
  %4 = load i8, ptr %inTheMoney_, align 8, !tbaa !57, !range !72, !noundef !61
  %loadedv = trunc nuw i8 %4 to i1
  br i1 %loadedv, label %entry.if.end_crit_edge, label %if.else

entry.if.end_crit_edge:                           ; preds = %entry
  %forward_11.phi.trans.insert = getelementptr inbounds nuw i8, ptr %this, i64 176
  %.pre = load double, ptr %forward_11.phi.trans.insert, align 8, !tbaa !58
  %X_14.phi.trans.insert = getelementptr inbounds nuw i8, ptr %this, i64 184
  %.pre2 = load double, ptr %X_14.phi.trans.insert, align 8, !tbaa !59
  br label %if.end

if.else:                                          ; preds = %entry
  %muPlusLambda_ = getelementptr inbounds nuw i8, ptr %this, i64 80
  %5 = load double, ptr %muPlusLambda_, align 8, !tbaa !55
  %fneg3 = fneg double %5
  %forward_ = getelementptr inbounds nuw i8, ptr %this, i64 176
  %6 = load double, ptr %forward_, align 8, !tbaa !58
  %mul4 = fmul double %6, %fneg3
  %div6 = fdiv double %mul4, %0
  %muMinusLambda_ = getelementptr inbounds nuw i8, ptr %this, i64 88
  %7 = load double, ptr %muMinusLambda_, align 8, !tbaa !56
  %fneg7 = fneg double %7
  %X_ = getelementptr inbounds nuw i8, ptr %this, i64 184
  %8 = load double, ptr %X_, align 8, !tbaa !59
  %mul8 = fmul double %8, %fneg7
  %div10 = fdiv double %mul8, %0
  br label %if.end

if.end:                                           ; preds = %entry.if.end_crit_edge, %if.else
  %9 = phi double [ %8, %if.else ], [ %.pre2, %entry.if.end_crit_edge ]
  %10 = phi double [ %6, %if.else ], [ %.pre, %entry.if.end_crit_edge ]
  %DforwardDs.0 = phi double [ %div6, %if.else ], [ 0.000000e+00, %entry.if.end_crit_edge ]
  %DXDs.0 = phi double [ %div10, %if.else ], [ 0.000000e+00, %entry.if.end_crit_edge ]
  %fneg = fneg double %0
  %mul = fmul double %1, %fneg
  %div2 = fdiv double %3, %mul
  %div = fdiv double %2, %mul
  %K_ = getelementptr inbounds nuw i8, ptr %this, i64 48
  %11 = load double, ptr %K_, align 8, !tbaa !67
  %alpha_ = getelementptr inbounds nuw i8, ptr %this, i64 136
  %12 = load double, ptr %alpha_, align 8, !tbaa !75
  %mul13 = fmul double %DforwardDs.0, %12
  %13 = tail call double @llvm.fmuladd.f64(double %div, double %10, double %mul13)
  %14 = tail call double @llvm.fmuladd.f64(double %div2, double %9, double %13)
  %beta_ = getelementptr inbounds nuw i8, ptr %this, i64 144
  %15 = load double, ptr %beta_, align 8, !tbaa !76
  %16 = tail call double @llvm.fmuladd.f64(double %15, double %DXDs.0, double %14)
  %mul17 = fmul double %11, %16
  ret double %mul17
}